; Function Attrs: mustprogress nofree norecurse nosync nounwind willreturn memory(read, inaccessiblemem: none) uwtable
define internal noundef float @_ZN5faiss12_GLOBAL__N_121ExtraDistanceComputerINS_14VectorDistanceILNS_10MetricTypeE20EEEE13symmetric_disEll(ptr nocapture noundef nonnull readonly align 8 dereferenceable(64) %0, i64 noundef %1, i64 noundef %2) unnamed_addr #17 align 2 {
  %4 = getelementptr inbounds i8, ptr %0, i64 24
  %5 = getelementptr inbounds i8, ptr %0, i64 56
  %6 = load ptr, ptr %5, align 8
  %7 = load i64, ptr %4, align 8
  %8 = mul i64 %7, %2
  %9 = getelementptr inbounds float, ptr %6, i64 %8
  %10 = mul i64 %7, %1
  %11 = getelementptr inbounds float, ptr %6, i64 %10
  %.not.i = icmp eq i64 %7, 0
  br i1 %.not.i, label %_ZNK5faiss14VectorDistanceILNS_10MetricTypeE20EEclEPKfS4_.exit, label %.lr.ph.i

.lr.ph.i:                                         ; preds = %3, %.lr.ph.i
  %.014.i = phi float [ %28, %.lr.ph.i ], [ 0.000000e+00, %3 ]
  %.01213.i = phi i64 [ %29, %.lr.ph.i ], [ 0, %3 ]
  %12 = getelementptr inbounds float, ptr %9, i64 %.01213.i
  %13 = load float, ptr %12, align 4
  %14 = getelementptr inbounds float, ptr %11, i64 %.01213.i
  %15 = load float, ptr %14, align 4
  %16 = fsub float %13, %15
  %17 = tail call float @llvm.fabs.f32(float %16)
  %18 = fpext float %17 to double
  %19 = insertelement <2 x float> poison, float %13, i64 0
  %20 = insertelement <2 x float> %19, float %15, i64 1
  %21 = tail call <2 x float> @llvm.fabs.v2f32(<2 x float> %20)
  %22 = fpext <2 x float> %21 to <2 x double>
  %shift = shufflevector <2 x double> %22, <2 x double> poison, <2 x i32> <i32 1, i32 poison>
  %23 = fadd <2 x double> %shift, %22
  %24 = extractelement <2 x double> %23, i64 0
  %25 = fdiv double %18, %24
  %26 = fpext float %.014.i to double
  %27 = fadd double %25, %26
  %28 = fptrunc double %27 to float
  %29 = add nuw i64 %.01213.i, 1
  %exitcond.not.i = icmp eq i64 %29, %7
  br i1 %exitcond.not.i, label %_ZNK5faiss14VectorDistanceILNS_10MetricTypeE20EEclEPKfS4_.exit, label %.lr.ph.i, !llvm.loop !24

_ZNK5faiss14VectorDistanceILNS_10MetricTypeE20EEclEPKfS4_.exit: ; preds = %.lr.ph.i, %3
  %.0.lcssa.i = phi float [ 0.000000e+00, %3 ], [ %28, %.lr.ph.i ]
  ret float %.0.lcssa.i
}